target datalayout = "e-m:e-p270:32:32-p271:32:32-p272:64:64-i64:64-i128:128-f80:128-n8:16:32:64-S128"
target triple = "x86_64-pc-linux-gnu"

%struct.prov_cipher_ctx_st = type { [16 x i8], [16 x i8], [16 x i8], ptr, %union.anon, i32, i64, i64, i64, i64, i32, i8, i32, ptr, i32, i64, i32, i64, i32, ptr, ptr, ptr }
%union.anon = type { ptr }
%union.aligned_16bytes = type { i64, [8 x i8] }
%struct.prov_cipher_hw_st = type { ptr, ptr, ptr }

; Function Attrs: nounwind uwtable
define internal void @do_xor(ptr noundef %0, ptr noundef %1, i64 noundef %2, ptr noundef %3) #0 {
  %5 = alloca ptr, align 8
  %6 = alloca ptr, align 8
  %7 = alloca i64, align 8
  %8 = alloca ptr, align 8
  %9 = alloca i64, align 8
  store ptr %0, ptr %5, align 8, !tbaa !16
  store ptr %1, ptr %6, align 8, !tbaa !16
  store i64 %2, ptr %7, align 8, !tbaa !7
  store ptr %3, ptr %8, align 8, !tbaa !16
  call void @llvm.lifetime.start.p0(i64 8, ptr %9) #5
  store i64 0, ptr %9, align 8, !tbaa !7
  br label %10

10:                                               ; preds = %30, %4
  %11 = load i64, ptr %9, align 8, !tbaa !7
  %12 = load i64, ptr %7, align 8, !tbaa !7
  %13 = icmp ult i64 %11, %12
  br i1 %13, label %14, label %33

14:                                               ; preds = %10
  %15 = load ptr, ptr %5, align 8, !tbaa !16
  %16 = load i64, ptr %9, align 8, !tbaa !7
  %17 = getelementptr inbounds nuw i8, ptr %15, i64 %16
  %18 = load i8, ptr %17, align 1, !tbaa !30
  %19 = zext i8 %18 to i32
  %20 = load ptr, ptr %6, align 8, !tbaa !16
  %21 = load i64, ptr %9, align 8, !tbaa !7
  %22 = getelementptr inbounds nuw i8, ptr %20, i64 %21
  %23 = load i8, ptr %22, align 1, !tbaa !30
  %24 = zext i8 %23 to i32
  %25 = xor i32 %19, %24
  %26 = trunc i32 %25 to i8
  %27 = load ptr, ptr %8, align 8, !tbaa !16
  %28 = load i64, ptr %9, align 8, !tbaa !7
  %29 = getelementptr inbounds nuw i8, ptr %27, i64 %28
  store i8 %26, ptr %29, align 1, !tbaa !30
  br label %30

30:                                               ; preds = %14
  %31 = load i64, ptr %9, align 8, !tbaa !7
  %32 = add i64 %31, 1
  store i64 %32, ptr %9, align 8, !tbaa !7
  br label %10, !llvm.loop !31

33:                                               ; preds = %10
  call void @llvm.lifetime.end.p0(i64 8, ptr %9) #5
  ret void
}

; Function Attrs: nounwind uwtable
define internal i64 @cts128_cs3_decrypt(ptr noundef %0, ptr noundef %1, ptr noundef %2, i64 noundef %3) #0 {
  %5 = alloca i64, align 8
  %6 = alloca ptr, align 8
  %7 = alloca ptr, align 8
  %8 = alloca ptr, align 8
  %9 = alloca i64, align 8
  %10 = alloca %union.aligned_16bytes, align 8
  %11 = alloca %union.aligned_16bytes, align 8
  %12 = alloca %union.aligned_16bytes, align 8
  %13 = alloca %union.aligned_16bytes, align 8
  %14 = alloca i64, align 8
  %15 = alloca i32, align 4
  store ptr %0, ptr %6, align 8, !tbaa !21
  store ptr %1, ptr %7, align 8, !tbaa !16
  store ptr %2, ptr %8, align 8, !tbaa !16
  store i64 %3, ptr %9, align 8, !tbaa !7
  call void @llvm.lifetime.start.p0(i64 16, ptr %10) #5
  call void @llvm.lifetime.start.p0(i64 16, ptr %11) #5
  call void @llvm.lifetime.start.p0(i64 16, ptr %12) #5
  call void @llvm.lifetime.start.p0(i64 16, ptr %13) #5
  call void @llvm.lifetime.start.p0(i64 8, ptr %14) #5
  %16 = load i64, ptr %9, align 8, !tbaa !7
  %17 = icmp ult i64 %16, 16
  br i1 %17, label %18, label %19

18:                                               ; preds = %4
  store i64 0, ptr %5, align 8
  store i32 1, ptr %15, align 4
  br label %139

19:                                               ; preds = %4
  %20 = load i64, ptr %9, align 8, !tbaa !7
  %21 = icmp eq i64 %20, 16
  br i1 %21, label %22, label %39

22:                                               ; preds = %19
  %23 = load ptr, ptr %6, align 8, !tbaa !21
  %24 = getelementptr inbounds nuw %struct.prov_cipher_ctx_st, ptr %23, i32 0, i32 19
  %25 = load ptr, ptr %24, align 8, !tbaa !27
  %26 = getelementptr inbounds nuw %struct.prov_cipher_hw_st, ptr %25, i32 0, i32 1
  %27 = load ptr, ptr %26, align 8, !tbaa !28
  %28 = load ptr, ptr %6, align 8, !tbaa !21
  %29 = load ptr, ptr %8, align 8, !tbaa !16
  %30 = load ptr, ptr %7, align 8, !tbaa !16
  %31 = load i64, ptr %9, align 8, !tbaa !7
  %32 = call i32 %27(ptr noundef %28, ptr noundef %29, ptr noundef %30, i64 noundef %31)
  %33 = icmp ne i32 %32, 0
  br i1 %33, label %34, label %36

34:                                               ; preds = %22
  %35 = load i64, ptr %9, align 8, !tbaa !7
  br label %37

36:                                               ; preds = %22
  br label %37

37:                                               ; preds = %36, %34
  %38 = phi i64 [ %35, %34 ], [ 0, %36 ]
  store i64 %38, ptr %5, align 8
  store i32 1, ptr %15, align 4
  br label %139

39:                                               ; preds = %19
  %40 = load i64, ptr %9, align 8, !tbaa !7
  %41 = urem i64 %40, 16
  store i64 %41, ptr %14, align 8, !tbaa !7
  %42 = load i64, ptr %14, align 8, !tbaa !7
  %43 = icmp eq i64 %42, 0
  br i1 %43, label %44, label %45

44:                                               ; preds = %39
  store i64 16, ptr %14, align 8, !tbaa !7
  br label %45

45:                                               ; preds = %44, %39
  %46 = load i64, ptr %14, align 8, !tbaa !7
  %47 = add i64 16, %46
  %48 = load i64, ptr %9, align 8, !tbaa !7
  %49 = sub i64 %48, %47
  store i64 %49, ptr %9, align 8, !tbaa !7
  %50 = load i64, ptr %9, align 8, !tbaa !7
  %51 = icmp ugt i64 %50, 0
  br i1 %51, label %52, label %72

52:                                               ; preds = %45
  %53 = load ptr, ptr %6, align 8, !tbaa !21
  %54 = getelementptr inbounds nuw %struct.prov_cipher_ctx_st, ptr %53, i32 0, i32 19
  %55 = load ptr, ptr %54, align 8, !tbaa !27
  %56 = getelementptr inbounds nuw %struct.prov_cipher_hw_st, ptr %55, i32 0, i32 1
  %57 = load ptr, ptr %56, align 8, !tbaa !28
  %58 = load ptr, ptr %6, align 8, !tbaa !21
  %59 = load ptr, ptr %8, align 8, !tbaa !16
  %60 = load ptr, ptr %7, align 8, !tbaa !16
  %61 = load i64, ptr %9, align 8, !tbaa !7
  %62 = call i32 %57(ptr noundef %58, ptr noundef %59, ptr noundef %60, i64 noundef %61)
  %63 = icmp ne i32 %62, 0
  br i1 %63, label %65, label %64

64:                                               ; preds = %52
  store i64 0, ptr %5, align 8
  store i32 1, ptr %15, align 4
  br label %139

65:                                               ; preds = %52
  %66 = load i64, ptr %9, align 8, !tbaa !7
  %67 = load ptr, ptr %7, align 8, !tbaa !16
  %68 = getelementptr inbounds nuw i8, ptr %67, i64 %66
  store ptr %68, ptr %7, align 8, !tbaa !16
  %69 = load i64, ptr %9, align 8, !tbaa !7
  %70 = load ptr, ptr %8, align 8, !tbaa !16
  %71 = getelementptr inbounds nuw i8, ptr %70, i64 %69
  store ptr %71, ptr %8, align 8, !tbaa !16
  br label %72

72:                                               ; preds = %65, %45
  %73 = getelementptr inbounds [16 x i8], ptr %10, i64 0, i64 0
  %74 = load ptr, ptr %6, align 8, !tbaa !21
  %75 = getelementptr inbounds nuw %struct.prov_cipher_ctx_st, ptr %74, i32 0, i32 2
  %76 = getelementptr inbounds [16 x i8], ptr %75, i64 0, i64 0
  call void @llvm.memcpy.p0.p0.i64(ptr align 8 %73, ptr align 8 %76, i64 16, i1 false)
  %77 = getelementptr inbounds [16 x i8], ptr %12, i64 0, i64 0
  %78 = load ptr, ptr %7, align 8, !tbaa !16
  call void @llvm.memcpy.p0.p0.i64(ptr align 8 %77, ptr align 1 %78, i64 16, i1 false)
  %79 = load ptr, ptr %6, align 8, !tbaa !21
  %80 = getelementptr inbounds nuw %struct.prov_cipher_ctx_st, ptr %79, i32 0, i32 2
  %81 = getelementptr inbounds [16 x i8], ptr %80, i64 0, i64 0
  call void @llvm.memset.p0.i64(ptr align 8 %81, i8 0, i64 16, i1 false)
  %82 = load ptr, ptr %6, align 8, !tbaa !21
  %83 = getelementptr inbounds nuw %struct.prov_cipher_ctx_st, ptr %82, i32 0, i32 19
  %84 = load ptr, ptr %83, align 8, !tbaa !27
  %85 = getelementptr inbounds nuw %struct.prov_cipher_hw_st, ptr %84, i32 0, i32 1
  %86 = load ptr, ptr %85, align 8, !tbaa !28
  %87 = load ptr, ptr %6, align 8, !tbaa !21
  %88 = getelementptr inbounds [16 x i8], ptr %13, i64 0, i64 0
  %89 = load ptr, ptr %7, align 8, !tbaa !16
  %90 = call i32 %86(ptr noundef %87, ptr noundef %88, ptr noundef %89, i64 noundef 16)
  %91 = icmp ne i32 %90, 0
  br i1 %91, label %93, label %92

92:                                               ; preds = %72
  store i64 0, ptr %5, align 8
  store i32 1, ptr %15, align 4
  br label %139

93:                                               ; preds = %72
  %94 = getelementptr inbounds [16 x i8], ptr %11, i64 0, i64 0
  %95 = load ptr, ptr %7, align 8, !tbaa !16
  %96 = getelementptr inbounds i8, ptr %95, i64 16
  %97 = load i64, ptr %14, align 8, !tbaa !7
  call void @llvm.memcpy.p0.p0.i64(ptr align 8 %94, ptr align 1 %96, i64 %97, i1 false)
  %98 = load i64, ptr %14, align 8, !tbaa !7
  %99 = icmp ne i64 %98, 16
  br i1 %99, label %100, label %109

100:                                              ; preds = %93
  %101 = getelementptr inbounds [16 x i8], ptr %11, i64 0, i64 0
  %102 = load i64, ptr %14, align 8, !tbaa !7
  %103 = getelementptr inbounds nuw i8, ptr %101, i64 %102
  %104 = getelementptr inbounds [16 x i8], ptr %13, i64 0, i64 0
  %105 = load i64, ptr %14, align 8, !tbaa !7
  %106 = getelementptr inbounds nuw i8, ptr %104, i64 %105
  %107 = load i64, ptr %14, align 8, !tbaa !7
  %108 = sub i64 16, %107
  call void @llvm.memcpy.p0.p0.i64(ptr align 1 %103, ptr align 1 %106, i64 %108, i1 false)
  br label %109

109:                                              ; preds = %100, %93
  %110 = getelementptr inbounds [16 x i8], ptr %11, i64 0, i64 0
  %111 = getelementptr inbounds [16 x i8], ptr %13, i64 0, i64 0
  %112 = load i64, ptr %14, align 8, !tbaa !7
  %113 = load ptr, ptr %8, align 8, !tbaa !16
  %114 = getelementptr inbounds i8, ptr %113, i64 16
  call void @do_xor(ptr noundef %110, ptr noundef %111, i64 noundef %112, ptr noundef %114)
  %115 = load ptr, ptr %6, align 8, !tbaa !21
  %116 = getelementptr inbounds nuw %struct.prov_cipher_ctx_st, ptr %115, i32 0, i32 2
  %117 = getelementptr inbounds [16 x i8], ptr %116, i64 0, i64 0
  %118 = getelementptr inbounds [16 x i8], ptr %10, i64 0, i64 0
  call void @llvm.memcpy.p0.p0.i64(ptr align 8 %117, ptr align 8 %118, i64 16, i1 false)
  %119 = load ptr, ptr %6, align 8, !tbaa !21
  %120 = getelementptr inbounds nuw %struct.prov_cipher_ctx_st, ptr %119, i32 0, i32 19
  %121 = load ptr, ptr %120, align 8, !tbaa !27
  %122 = getelementptr inbounds nuw %struct.prov_cipher_hw_st, ptr %121, i32 0, i32 1
  %123 = load ptr, ptr %122, align 8, !tbaa !28
  %124 = load ptr, ptr %6, align 8, !tbaa !21
  %125 = load ptr, ptr %8, align 8, !tbaa !16
  %126 = getelementptr inbounds [16 x i8], ptr %11, i64 0, i64 0
  %127 = call i32 %123(ptr noundef %124, ptr noundef %125, ptr noundef %126, i64 noundef 16)
  %128 = icmp ne i32 %127, 0
  br i1 %128, label %130, label %129

129:                                              ; preds = %109
  store i64 0, ptr %5, align 8
  store i32 1, ptr %15, align 4
  br label %139

130:                                              ; preds = %109
  %131 = load ptr, ptr %6, align 8, !tbaa !21
  %132 = getelementptr inbounds nuw %struct.prov_cipher_ctx_st, ptr %131, i32 0, i32 2
  %133 = getelementptr inbounds [16 x i8], ptr %132, i64 0, i64 0
  %134 = getelementptr inbounds [16 x i8], ptr %12, i64 0, i64 0
  call void @llvm.memcpy.p0.p0.i64(ptr align 8 %133, ptr align 8 %134, i64 16, i1 false)
  %135 = load i64, ptr %9, align 8, !tbaa !7
  %136 = add i64 %135, 16
  %137 = load i64, ptr %14, align 8, !tbaa !7
  %138 = add i64 %136, %137
  store i64 %138, ptr %5, align 8
  store i32 1, ptr %15, align 4
  br label %139

139:                                              ; preds = %130, %129, %92, %64, %37, %18
  call void @llvm.lifetime.end.p0(i64 8, ptr %14) #5
  call void @llvm.lifetime.end.p0(i64 16, ptr %13) #5
  call void @llvm.lifetime.end.p0(i64 16, ptr %12) #5
  call void @llvm.lifetime.end.p0(i64 16, ptr %11) #5
  call void @llvm.lifetime.end.p0(i64 16, ptr %10) #5
  %140 = load i64, ptr %5, align 8
  ret i64 %140
}