; Function Attrs: nounwind uwtable
define internal fastcc i64 @cts128_cs3_decrypt(ptr noundef %0, ptr noundef %1, ptr noundef nonnull %2, i64 noundef range(i64 16, 0) %3) unnamed_addr #2 {
  %5 = alloca %union.aligned_16bytes, align 8
  %6 = alloca %union.aligned_16bytes, align 8
  %7 = alloca %union.aligned_16bytes, align 8
  %8 = alloca %union.aligned_16bytes, align 8
  call void @llvm.lifetime.start.p0(i64 16, ptr nonnull %5)
  call void @llvm.lifetime.start.p0(i64 16, ptr nonnull %6) #7
  call void @llvm.lifetime.start.p0(i64 16, ptr nonnull %7)
  call void @llvm.lifetime.start.p0(i64 16, ptr nonnull %8) #7
  %9 = icmp eq i64 %3, 16
  br i1 %9, label %10, label %17

10:                                               ; preds = %4
  %11 = getelementptr inbounds nuw i8, ptr %0, i64 168
  %12 = load ptr, ptr %11, align 8, !tbaa !20
  %13 = getelementptr inbounds nuw i8, ptr %12, i64 8
  %14 = load ptr, ptr %13, align 8, !tbaa !21
  %15 = tail call i32 %14(ptr noundef %0, ptr noundef nonnull %2, ptr noundef %1, i64 noundef 16) #7
  %.not53 = icmp eq i32 %15, 0
  %16 = select i1 %.not53, i64 0, i64 16
  br label %64

17:                                               ; preds = %4
  %18 = and i64 %3, 15
  %19 = icmp eq i64 %18, 0
  %spec.store.select = select i1 %19, i64 16, i64 %18
  %20 = add nuw nsw i64 %spec.store.select, 16
  %21 = sub i64 %3, %20
  %.not = icmp eq i64 %3, %20
  br i1 %.not, label %31, label %22

22:                                               ; preds = %17
  %23 = getelementptr inbounds nuw i8, ptr %0, i64 168
  %24 = load ptr, ptr %23, align 8, !tbaa !20
  %25 = getelementptr inbounds nuw i8, ptr %24, i64 8
  %26 = load ptr, ptr %25, align 8, !tbaa !21
  %27 = tail call i32 %26(ptr noundef %0, ptr noundef nonnull %2, ptr noundef %1, i64 noundef %21) #7
  %.not49 = icmp eq i32 %27, 0
  br i1 %.not49, label %64, label %28

28:                                               ; preds = %22
  %29 = getelementptr inbounds nuw i8, ptr %1, i64 %21
  %30 = getelementptr inbounds nuw i8, ptr %2, i64 %21
  br label %31

31:                                               ; preds = %28, %17
  %.043 = phi ptr [ %29, %28 ], [ %1, %17 ]
  %.0 = phi ptr [ %30, %28 ], [ %2, %17 ]
  %32 = getelementptr inbounds nuw i8, ptr %0, i64 32
  call void @llvm.memcpy.p0.p0.i64(ptr noundef nonnull align 8 dereferenceable(16) %5, ptr noundef nonnull align 8 dereferenceable(16) %32, i64 16, i1 false)
  call void @llvm.memcpy.p0.p0.i64(ptr noundef nonnull align 8 dereferenceable(16) %7, ptr noundef nonnull align 1 dereferenceable(16) %.043, i64 16, i1 false)
  tail call void @llvm.memset.p0.i64(ptr noundef nonnull align 8 dereferenceable(16) %32, i8 0, i64 16, i1 false)
  %33 = getelementptr inbounds nuw i8, ptr %0, i64 168
  %34 = load ptr, ptr %33, align 8, !tbaa !20
  %35 = getelementptr inbounds nuw i8, ptr %34, i64 8
  %36 = load ptr, ptr %35, align 8, !tbaa !21
  %37 = call i32 %36(ptr noundef %0, ptr noundef nonnull %8, ptr noundef nonnull %.043, i64 noundef 16) #7
  %.not50 = icmp eq i32 %37, 0
  br i1 %.not50, label %64, label %38

38:                                               ; preds = %31
  %39 = getelementptr inbounds nuw i8, ptr %.043, i64 16
  call void @llvm.memcpy.p0.p0.i64(ptr noundef nonnull align 8 dereferenceable(1) %6, ptr noundef nonnull align 1 dereferenceable(1) %39, i64 %spec.store.select, i1 false)
  br i1 %19, label %.split, label %.split46

.split:                                           ; preds = %38
  %40 = getelementptr inbounds nuw i8, ptr %.0, i64 16
  br label %.lr.ph.i

.lr.ph.i:                                         ; preds = %.lr.ph.i, %.split
  %.08.i = phi i64 [ %47, %.lr.ph.i ], [ 0, %.split ]
  %41 = getelementptr inbounds nuw i8, ptr %6, i64 %.08.i
  %42 = load i8, ptr %41, align 1, !tbaa !23
  %43 = getelementptr inbounds nuw i8, ptr %8, i64 %.08.i
  %44 = load i8, ptr %43, align 1, !tbaa !23
  %45 = xor i8 %44, %42
  %46 = getelementptr inbounds nuw i8, ptr %40, i64 %.08.i
  store i8 %45, ptr %46, align 1, !tbaa !23
  %47 = add nuw nsw i64 %.08.i, 1
  %exitcond.not.i = icmp eq i64 %47, 16
  br i1 %exitcond.not.i, label %do_xor.exit, label %.lr.ph.i, !llvm.loop !24

.split46:                                         ; preds = %38
  %48 = getelementptr inbounds nuw i8, ptr %6, i64 %18
  %49 = getelementptr inbounds nuw i8, ptr %8, i64 %18
  %50 = sub nuw nsw i64 16, %18
  call void @llvm.memcpy.p0.p0.i64(ptr noundef nonnull align 1 dereferenceable(1) %48, ptr noundef nonnull align 1 dereferenceable(1) %49, i64 %50, i1 false)
  %51 = getelementptr inbounds nuw i8, ptr %.0, i64 16
  br label %.lr.ph.i54

.lr.ph.i54:                                       ; preds = %.split46, %.lr.ph.i54
  %.08.i55 = phi i64 [ %58, %.lr.ph.i54 ], [ 0, %.split46 ]
  %52 = getelementptr inbounds nuw i8, ptr %6, i64 %.08.i55
  %53 = load i8, ptr %52, align 1, !tbaa !23
  %54 = getelementptr inbounds nuw i8, ptr %8, i64 %.08.i55
  %55 = load i8, ptr %54, align 1, !tbaa !23
  %56 = xor i8 %55, %53
  %57 = getelementptr inbounds nuw i8, ptr %51, i64 %.08.i55
  store i8 %56, ptr %57, align 1, !tbaa !23
  %58 = add nuw nsw i64 %.08.i55, 1
  %exitcond.not.i56 = icmp eq i64 %58, %spec.store.select
  br i1 %exitcond.not.i56, label %do_xor.exit, label %.lr.ph.i54, !llvm.loop !24

do_xor.exit:                                      ; preds = %.lr.ph.i54, %.lr.ph.i
  call void @llvm.memcpy.p0.p0.i64(ptr noundef nonnull align 8 dereferenceable(16) %32, ptr noundef nonnull align 8 dereferenceable(16) %5, i64 16, i1 false)
  %59 = load ptr, ptr %33, align 8, !tbaa !20
  %60 = getelementptr inbounds nuw i8, ptr %59, i64 8
  %61 = load ptr, ptr %60, align 8, !tbaa !21
  %62 = call i32 %61(ptr noundef %0, ptr noundef nonnull %.0, ptr noundef nonnull %6, i64 noundef 16) #7
  %.not52 = icmp eq i32 %62, 0
  br i1 %.not52, label %64, label %63

63:                                               ; preds = %do_xor.exit
  call void @llvm.memcpy.p0.p0.i64(ptr noundef nonnull align 8 dereferenceable(16) %32, ptr noundef nonnull align 8 dereferenceable(16) %7, i64 16, i1 false)
  br label %64

64:                                               ; preds = %do_xor.exit, %31, %22, %63, %10
  %.044 = phi i64 [ %16, %10 ], [ %3, %63 ], [ 0, %22 ], [ 0, %31 ], [ 0, %do_xor.exit ]
  call void @llvm.lifetime.end.p0(i64 16, ptr nonnull %8) #7
  call void @llvm.lifetime.end.p0(i64 16, ptr nonnull %7)
  call void @llvm.lifetime.end.p0(i64 16, ptr nonnull %6) #7
  call void @llvm.lifetime.end.p0(i64 16, ptr nonnull %5)
  ret i64 %.044
}